; Function Attrs: mustprogress uwtable
define hidden noundef zeroext i1 @_ZN4cvc58internal6theory5arith14EqualitySolver19needsEqualityEngineERNS1_11EeSetupInfoE(ptr noundef nonnull align 8 dereferenceable(120) %0, ptr noundef nonnull align 8 dereferenceable(45) initializes((0, 8)) %1) local_unnamed_addr #3 align 2 {
  %3 = getelementptr inbounds nuw i8, ptr %0, i64 32
  store ptr %3, ptr %1, align 8, !tbaa !42
  %4 = getelementptr inbounds nuw i8, ptr %1, i64 8
  %5 = getelementptr inbounds nuw i8, ptr %1, i64 16
  %6 = load i64, ptr %5, align 8, !tbaa !49
  %7 = tail call noundef nonnull align 8 dereferenceable(32) ptr @_ZNSt7__cxx1112basic_stringIcSt11char_traitsIcESaIcEE10_M_replaceEmmPKcm(ptr noundef nonnull align 8 dereferenceable(32) %4, i64 noundef 0, i64 noundef %6, ptr noundef nonnull @.str, i64 noundef 9)
  ret i1 true
}